target datalayout = "e-m:e-p270:32:32-p271:32:32-p272:64:64-i64:64-i128:128-f80:128-n8:16:32:64-S128"
target triple = "x86_64-pc-linux-gnu"

%struct.ssl_st = type { i32, ptr, ptr, ptr, %struct.CRYPTO_REF_COUNT, ptr, %struct.crypto_ex_data_st }
%struct.CRYPTO_REF_COUNT = type { i32 }
%struct.crypto_ex_data_st = type { ptr, ptr }
%struct.ssl_connection_st = type { %struct.ssl_st, ptr, i32, ptr, ptr, ptr, i32, ptr, i32, i32, i32, i32, %struct.OSSL_TIME, %struct.OSSL_TIME, %struct.ossl_statem_st, i32, ptr, ptr, i64, i64, i64, %struct.ossl_quic_tls_callbacks_st, ptr, ptr, %struct.anon, ptr, ptr, ptr, i32, ptr, %struct.ssl_dane_st, ptr, ptr, ptr, ptr, i32, [64 x i8], [64 x i8], [64 x i8], [64 x i8], [64 x i8], [64 x i8], [64 x i8], [64 x i8], [64 x i8], [64 x i8], [64 x i8], [64 x i8], ptr, [64 x i8], i64, i32, i64, [32 x i8], ptr, ptr, ptr, i64, ptr, [32 x i8], i64, i32, ptr, ptr, i32, i32, ptr, ptr, ptr, ptr, ptr, i64, ptr, ptr, i64, i32, i32, i32, i64, i32, i32, i64, i64, i64, %struct.anon.1, ptr, i32, ptr, ptr, ptr, i32, ptr, ptr, ptr, i32, i32, i32, i32, ptr, i64, i32, ptr, %struct.srp_ctx_st, ptr, %struct.record_layer_st, ptr, ptr, ptr, ptr, i64, i32, i32, i32, i64, i64, i64, ptr, ptr, ptr, ptr, ptr, i64, ptr, i64, ptr, i64 }
%struct.OSSL_TIME = type { i64 }
%struct.ossl_statem_st = type { i32, i32, i32, i32, i32, i32, i32, i32, i32, i32, i32, i32, i32, ptr, ptr, ptr, i8 }
%struct.ossl_quic_tls_callbacks_st = type { ptr, ptr, ptr, ptr, ptr, ptr }
%struct.anon = type { i64, [32 x i8], [32 x i8], ptr, ptr, i32, i32, i32, i32, [2 x i8], i32, i32, i32, i32, %struct.anon.0, [64 x i8], i64, [64 x i8], i64, i32, i32, ptr, i64, ptr, i64, i32, i8, i8, i16, ptr, i16 }
%struct.anon.0 = type { [128 x i8], i64, [128 x i8], i64, i64, i32, ptr, ptr, [4 x ptr], [4 x i16], i64, i32, ptr, i64, ptr, i64, ptr, ptr, ptr, i32, i64, ptr, i32, ptr, i64, ptr, i64, ptr, i64, ptr, ptr, ptr, ptr, i64, i64, ptr, ptr, i32, i32, i32, i32 }
%struct.ssl_dane_st = type { ptr, ptr, ptr, ptr, ptr, i32, i32, i32, i64 }
%struct.anon.1 = type { [29 x i8], ptr, ptr, ptr, i32, ptr, i16, i32, %struct.anon.2, i32, i32, i64, ptr, i64, ptr, i64, ptr, i64, ptr, i64, ptr, i64, ptr, ptr, ptr, ptr, ptr, ptr, ptr, i64, ptr, i64, i32, i32, i32, i32, ptr, i64, i32, i8, i32, [4 x i32], i32, i8, i8, i8, i8 }
%struct.anon.2 = type { ptr, ptr, ptr, i64 }
%struct.srp_ctx_st = type { ptr, ptr, ptr, ptr, ptr, ptr, ptr, ptr, ptr, ptr, ptr, ptr, ptr, ptr, i32, i64 }
%struct.record_layer_st = type { ptr, ptr, ptr, ptr, ptr, ptr, ptr, ptr, i64, i32, i64, [4 x i8], i64, i64, i8, ptr, i32, ptr, ptr, ptr, i64, i64, i64, i64, [32 x %struct.tls_record_st] }
%struct.tls_record_st = type { ptr, i32, i8, ptr, ptr, i64, i64, i16, [8 x i8] }

; Function Attrs: nounwind uwtable
define internal i32 @crypto_recv_rcd_cb(ptr noundef %0, ptr noundef %1, ptr noundef %2) #0 {
  %4 = alloca i32, align 4
  %5 = alloca ptr, align 8
  %6 = alloca ptr, align 8
  %7 = alloca ptr, align 8
  %8 = alloca ptr, align 8
  %9 = alloca ptr, align 8
  %10 = alloca i32, align 4
  store ptr %0, ptr %5, align 8, !tbaa !111
  store ptr %1, ptr %6, align 8, !tbaa !109
  store ptr %2, ptr %7, align 8, !tbaa !10
  call void @llvm.lifetime.start.p0(i64 8, ptr %8) #4
  %11 = load ptr, ptr %7, align 8, !tbaa !10
  store ptr %11, ptr %8, align 8, !tbaa !3
  call void @llvm.lifetime.start.p0(i64 8, ptr %9) #4
  %12 = load ptr, ptr %8, align 8, !tbaa !3
  %13 = icmp eq ptr %12, null
  br i1 %13, label %14, label %15

14:                                               ; preds = %3
  br label %36

15:                                               ; preds = %3
  %16 = load ptr, ptr %8, align 8, !tbaa !3
  %17 = getelementptr inbounds nuw %struct.ssl_st, ptr %16, i32 0, i32 0
  %18 = load i32, ptr %17, align 8, !tbaa !11
  %19 = icmp eq i32 %18, 0
  br i1 %19, label %20, label %22

20:                                               ; preds = %15
  %21 = load ptr, ptr %8, align 8, !tbaa !3
  br label %34

22:                                               ; preds = %15
  %23 = load ptr, ptr %8, align 8, !tbaa !3
  %24 = getelementptr inbounds nuw %struct.ssl_st, ptr %23, i32 0, i32 0
  %25 = load i32, ptr %24, align 8, !tbaa !11
  %26 = and i32 %25, 128
  %27 = icmp ne i32 %26, 0
  br i1 %27, label %28, label %31

28:                                               ; preds = %22
  %29 = load ptr, ptr %8, align 8, !tbaa !3
  %30 = call ptr @ossl_quic_obj_get0_handshake_layer(ptr noundef %29)
  br label %32

31:                                               ; preds = %22
  br label %32

32:                                               ; preds = %31, %28
  %33 = phi ptr [ %30, %28 ], [ null, %31 ]
  br label %34

34:                                               ; preds = %32, %20
  %35 = phi ptr [ %21, %20 ], [ %33, %32 ]
  br label %36

36:                                               ; preds = %34, %14
  %37 = phi ptr [ null, %14 ], [ %35, %34 ]
  store ptr %37, ptr %9, align 8, !tbaa !20
  %38 = load ptr, ptr %9, align 8, !tbaa !20
  %39 = icmp eq ptr %38, null
  br i1 %39, label %40, label %41

40:                                               ; preds = %36
  store i32 0, ptr %4, align 4
  store i32 1, ptr %10, align 4
  br label %53

41:                                               ; preds = %36
  %42 = load ptr, ptr %9, align 8, !tbaa !20
  %43 = getelementptr inbounds nuw %struct.ssl_connection_st, ptr %42, i32 0, i32 21
  %44 = getelementptr inbounds nuw %struct.ossl_quic_tls_callbacks_st, ptr %43, i32 0, i32 1
  %45 = load ptr, ptr %44, align 8, !tbaa !113
  %46 = load ptr, ptr %8, align 8, !tbaa !3
  %47 = load ptr, ptr %5, align 8, !tbaa !111
  %48 = load ptr, ptr %6, align 8, !tbaa !109
  %49 = load ptr, ptr %9, align 8, !tbaa !20
  %50 = getelementptr inbounds nuw %struct.ssl_connection_st, ptr %49, i32 0, i32 22
  %51 = load ptr, ptr %50, align 8, !tbaa !22
  %52 = call i32 %45(ptr noundef %46, ptr noundef %47, ptr noundef %48, ptr noundef %51)
  store i32 %52, ptr %4, align 4
  store i32 1, ptr %10, align 4
  br label %53

53:                                               ; preds = %41, %40
  call void @llvm.lifetime.end.p0(i64 8, ptr %9) #4
  call void @llvm.lifetime.end.p0(i64 8, ptr %8) #4
  %54 = load i32, ptr %4, align 4
  ret i32 %54
}